target datalayout = "e-m:e-p270:32:32-p271:32:32-p272:64:64-i64:64-i128:128-f80:128-n8:16:32:64-S128"
target triple = "x86_64-pc-linux-gnu"

%"class.gmx::ArrayRef" = type { %"struct.gmx::ArrayRefIter", %"struct.gmx::ArrayRefIter" }
%"struct.gmx::ArrayRefIter" = type { ptr }
%"class.gmx::BasicVector" = type { [3 x float] }
%"class.gmx::BasicVector.41" = type { [3 x double] }

; Function Attrs: mustprogress nounwind uwtable
define linkonce_odr void @_ZN3gmx11BasicVectorIdEC2Eddd(ptr noundef nonnull align 8 dereferenceable(24) %0, double noundef %1, double noundef %2, double noundef %3) unnamed_addr #0 comdat align 2 {
  %5 = alloca ptr, align 8
  %6 = alloca double, align 8
  %7 = alloca double, align 8
  %8 = alloca double, align 8
  store ptr %0, ptr %5, align 8
  store double %1, ptr %6, align 8
  store double %2, ptr %7, align 8
  store double %3, ptr %8, align 8
  %9 = load ptr, ptr %5, align 8
  %10 = getelementptr inbounds %"class.gmx::BasicVector.41", ptr %9, i32 0, i32 0
  %11 = getelementptr inbounds [3 x double], ptr %10, i64 0, i64 0
  %12 = load double, ptr %6, align 8
  store double %12, ptr %11, align 8
  %13 = getelementptr inbounds double, ptr %11, i64 1
  %14 = load double, ptr %7, align 8
  store double %14, ptr %13, align 8
  %15 = getelementptr inbounds double, ptr %13, i64 1
  %16 = load double, ptr %8, align 8
  store double %16, ptr %15, align 8
  ret void
}

; Function Attrs: mustprogress nounwind uwtable
define linkonce_odr noundef nonnull align 4 dereferenceable(12) ptr @_ZNK3gmx12ArrayRefIterIKNS_11BasicVectorIfEEEdeEv(ptr noundef nonnull align 8 dereferenceable(8) %0) #0 comdat align 2 {
  %2 = alloca ptr, align 8
  store ptr %0, ptr %2, align 8
  %3 = load ptr, ptr %2, align 8
  %4 = getelementptr inbounds %"struct.gmx::ArrayRefIter", ptr %3, i32 0, i32 0
  %5 = load ptr, ptr %4, align 8
  ret ptr %5
}

; Function Attrs: mustprogress nounwind uwtable
define linkonce_odr noundef nonnull align 8 dereferenceable(8) ptr @_ZN3gmx12ArrayRefIterIKNS_11BasicVectorIfEEEpLEl(ptr noundef nonnull align 8 dereferenceable(8) %0, i64 noundef %1) #0 comdat align 2 {
  %3 = alloca ptr, align 8
  %4 = alloca i64, align 8
  store ptr %0, ptr %3, align 8
  store i64 %1, ptr %4, align 8
  %5 = load ptr, ptr %3, align 8
  %6 = load i64, ptr %4, align 8
  %7 = getelementptr inbounds %"struct.gmx::ArrayRefIter", ptr %5, i32 0, i32 0
  %8 = load ptr, ptr %7, align 8
  %9 = getelementptr inbounds %"class.gmx::BasicVector", ptr %8, i64 %6
  store ptr %9, ptr %7, align 8
  ret ptr %5
}

; Function Attrs: mustprogress nounwind uwtable
define linkonce_odr noundef nonnull align 8 dereferenceable(8) ptr @_ZNK3gmx5boost14stl_interfaces2v118iterator_interfaceINS_12ArrayRefIterIKNS_11BasicVectorIfEEEESt26random_access_iterator_tagS7_RS7_PS7_lvE7derivedEv(ptr noundef nonnull align 1 dereferenceable(1) %0) #0 comdat align 2 {
  %2 = alloca ptr, align 8
  store ptr %0, ptr %2, align 8
  %3 = load ptr, ptr %2, align 8
  ret ptr %3
}

; Function Attrs: mustprogress nounwind uwtable
define linkonce_odr noundef double @_ZNK3gmx11BasicVectorIdEixEi(ptr noundef nonnull align 8 dereferenceable(24) %0, i32 noundef %1) #0 comdat align 2 {
  %3 = alloca ptr, align 8
  %4 = alloca i32, align 4
  store ptr %0, ptr %3, align 8
  store i32 %1, ptr %4, align 4
  %5 = load ptr, ptr %3, align 8
  %6 = getelementptr inbounds %"class.gmx::BasicVector.41", ptr %5, i32 0, i32 0
  %7 = load i32, ptr %4, align 4
  %8 = sext i32 %7 to i64
  %9 = getelementptr inbounds [3 x double], ptr %6, i64 0, i64 %8
  %10 = load double, ptr %9, align 8
  ret double %10
}

; Function Attrs: mustprogress uwtable
define linkonce_odr void @_ZNK3gmx11BasicVectorIfE6toDVecEv(ptr dead_on_unwind noalias writable sret(%"class.gmx::BasicVector.41") align 8 %0, ptr noundef nonnull align 4 dereferenceable(12) %1) #1 comdat align 2 {
  %3 = alloca ptr, align 8
  store ptr %1, ptr %3, align 8
  %4 = load ptr, ptr %3, align 8
  %5 = getelementptr inbounds %"class.gmx::BasicVector", ptr %4, i32 0, i32 0
  %6 = getelementptr inbounds [3 x float], ptr %5, i64 0, i64 0
  %7 = load float, ptr %6, align 4
  %8 = fpext float %7 to double
  %9 = getelementptr inbounds %"class.gmx::BasicVector", ptr %4, i32 0, i32 0
  %10 = getelementptr inbounds [3 x float], ptr %9, i64 0, i64 1
  %11 = load float, ptr %10, align 4
  %12 = fpext float %11 to double
  %13 = getelementptr inbounds %"class.gmx::BasicVector", ptr %4, i32 0, i32 0
  %14 = getelementptr inbounds [3 x float], ptr %13, i64 0, i64 2
  %15 = load float, ptr %14, align 4
  %16 = fpext float %15 to double
  call void @_ZN3gmx11BasicVectorIdEC2Eddd(ptr noundef nonnull align 8 dereferenceable(24) %0, double noundef %8, double noundef %12, double noundef %16)
  ret void
}

; Function Attrs: mustprogress nounwind uwtable
define linkonce_odr noundef nonnull align 4 dereferenceable(12) ptr @_ZNK3gmx5boost14stl_interfaces2v118iterator_interfaceINS_12ArrayRefIterIKNS_11BasicVectorIfEEEESt26random_access_iterator_tagS7_RS7_PS7_lvEixIS8_EEDTcmpLclsr3stdE7declvalIRT_EEfp_declsr3stdE7declvalISF_EEEl(ptr noundef nonnull align 1 dereferenceable(1) %0, i64 noundef %1) #0 comdat align 2 {
  %3 = alloca ptr, align 8
  %4 = alloca i64, align 8
  %5 = alloca %"struct.gmx::ArrayRefIter", align 8
  store ptr %0, ptr %3, align 8
  store i64 %1, ptr %4, align 8
  %6 = load ptr, ptr %3, align 8
  %7 = call noundef nonnull align 8 dereferenceable(8) ptr @_ZNK3gmx5boost14stl_interfaces2v118iterator_interfaceINS_12ArrayRefIterIKNS_11BasicVectorIfEEEESt26random_access_iterator_tagS7_RS7_PS7_lvE7derivedEv(ptr noundef nonnull align 1 dereferenceable(1) %6) #14
  call void @llvm.memcpy.p0.p0.i64(ptr align 8 %5, ptr align 8 %7, i64 8, i1 false)
  %8 = load i64, ptr %4, align 8
  %9 = call noundef nonnull align 8 dereferenceable(8) ptr @_ZN3gmx12ArrayRefIterIKNS_11BasicVectorIfEEEpLEl(ptr noundef nonnull align 8 dereferenceable(8) %5, i64 noundef %8) #14
  %10 = call noundef nonnull align 4 dereferenceable(12) ptr @_ZNK3gmx12ArrayRefIterIKNS_11BasicVectorIfEEEdeEv(ptr noundef nonnull align 8 dereferenceable(8) %5) #14
  ret ptr %10
}

; Function Attrs: mustprogress nounwind uwtable
define linkonce_odr noundef i64 @_ZNK3gmx12ArrayRefIterIKNS_11BasicVectorIfEEEmiES4_(ptr noundef nonnull align 8 dereferenceable(8) %0, ptr %1) #0 comdat align 2 {
  %3 = alloca %"struct.gmx::ArrayRefIter", align 8
  %4 = alloca ptr, align 8
  %5 = getelementptr inbounds %"struct.gmx::ArrayRefIter", ptr %3, i32 0, i32 0
  store ptr %1, ptr %5, align 8
  store ptr %0, ptr %4, align 8
  %6 = load ptr, ptr %4, align 8
  %7 = getelementptr inbounds %"struct.gmx::ArrayRefIter", ptr %6, i32 0, i32 0
  %8 = load ptr, ptr %7, align 8
  %9 = getelementptr inbounds %"struct.gmx::ArrayRefIter", ptr %3, i32 0, i32 0
  %10 = load ptr, ptr %9, align 8
  %11 = ptrtoint ptr %8 to i64
  %12 = ptrtoint ptr %10 to i64
  %13 = sub i64 %11, %12
  %14 = sdiv exact i64 %13, 12
  ret i64 %14
}

; Function Attrs: mustprogress uwtable
define internal noundef double @_ZN3gmx15analysismodules12_GLOBAL__N_125calcSingleSquaredDistanceILb1ELb1ELb0EEEdNS_11BasicVectorIfEES4_(<2 x float> %0, float %1, <2 x float> %2, float %3) #3 {
  %5 = alloca %"class.gmx::BasicVector", align 4
  %6 = alloca { <2 x float>, float }, align 4
  %7 = alloca %"class.gmx::BasicVector", align 4
  %8 = alloca { <2 x float>, float }, align 4
  %9 = alloca %"class.gmx::BasicVector.41", align 8
  %10 = alloca %"class.gmx::BasicVector.41", align 8
  %11 = alloca double, align 8
  %12 = getelementptr inbounds { <2 x float>, float }, ptr %6, i32 0, i32 0
  store <2 x float> %0, ptr %12, align 4
  %13 = getelementptr inbounds { <2 x float>, float }, ptr %6, i32 0, i32 1
  store float %1, ptr %13, align 4
  call void @llvm.memcpy.p0.p0.i64(ptr align 4 %5, ptr align 4 %6, i64 12, i1 false)
  %14 = getelementptr inbounds { <2 x float>, float }, ptr %8, i32 0, i32 0
  store <2 x float> %2, ptr %14, align 4
  %15 = getelementptr inbounds { <2 x float>, float }, ptr %8, i32 0, i32 1
  store float %3, ptr %15, align 4
  call void @llvm.memcpy.p0.p0.i64(ptr align 4 %7, ptr align 4 %8, i64 12, i1 false)
  call void @_ZNK3gmx11BasicVectorIfE6toDVecEv(ptr dead_on_unwind writable sret(%"class.gmx::BasicVector.41") align 8 %9, ptr noundef nonnull align 4 dereferenceable(12) %5)
  call void @_ZNK3gmx11BasicVectorIfE6toDVecEv(ptr dead_on_unwind writable sret(%"class.gmx::BasicVector.41") align 8 %10, ptr noundef nonnull align 4 dereferenceable(12) %7)
  store double 0.000000e+00, ptr %11, align 8
  %16 = call noundef double @_ZNK3gmx11BasicVectorIdEixEi(ptr noundef nonnull align 8 dereferenceable(24) %9, i32 noundef 0)
  %17 = call noundef double @_ZNK3gmx11BasicVectorIdEixEi(ptr noundef nonnull align 8 dereferenceable(24) %10, i32 noundef 0)
  %18 = fsub double %16, %17
  %19 = call noundef double @_ZNK3gmx11BasicVectorIdEixEi(ptr noundef nonnull align 8 dereferenceable(24) %9, i32 noundef 0)
  %20 = call noundef double @_ZNK3gmx11BasicVectorIdEixEi(ptr noundef nonnull align 8 dereferenceable(24) %10, i32 noundef 0)
  %21 = fsub double %19, %20
  %22 = load double, ptr %11, align 8
  %23 = call double @llvm.fmuladd.f64(double %18, double %21, double %22)
  store double %23, ptr %11, align 8
  %24 = call noundef double @_ZNK3gmx11BasicVectorIdEixEi(ptr noundef nonnull align 8 dereferenceable(24) %9, i32 noundef 1)
  %25 = call noundef double @_ZNK3gmx11BasicVectorIdEixEi(ptr noundef nonnull align 8 dereferenceable(24) %10, i32 noundef 1)
  %26 = fsub double %24, %25
  %27 = call noundef double @_ZNK3gmx11BasicVectorIdEixEi(ptr noundef nonnull align 8 dereferenceable(24) %9, i32 noundef 1)
  %28 = call noundef double @_ZNK3gmx11BasicVectorIdEixEi(ptr noundef nonnull align 8 dereferenceable(24) %10, i32 noundef 1)
  %29 = fsub double %27, %28
  %30 = load double, ptr %11, align 8
  %31 = call double @llvm.fmuladd.f64(double %26, double %29, double %30)
  store double %31, ptr %11, align 8
  %32 = load double, ptr %11, align 8
  ret double %32
}

; Function Attrs: mustprogress nounwind uwtable
define linkonce_odr noundef nonnull align 4 dereferenceable(12) ptr @_ZNK3gmx8ArrayRefIKNS_11BasicVectorIfEEEixEm(ptr noundef nonnull align 8 dereferenceable(16) %0, i64 noundef %1) #0 comdat align 2 {
  %3 = alloca ptr, align 8
  %4 = alloca i64, align 8
  store ptr %0, ptr %3, align 8
  store i64 %1, ptr %4, align 8
  %5 = load ptr, ptr %3, align 8
  %6 = getelementptr inbounds %"class.gmx::ArrayRef", ptr %5, i32 0, i32 0
  %7 = load i64, ptr %4, align 8
  %8 = call noundef nonnull align 4 dereferenceable(12) ptr @_ZNK3gmx5boost14stl_interfaces2v118iterator_interfaceINS_12ArrayRefIterIKNS_11BasicVectorIfEEEESt26random_access_iterator_tagS7_RS7_PS7_lvEixIS8_EEDTcmpLclsr3stdE7declvalIRT_EEfp_declsr3stdE7declvalISF_EEEl(ptr noundef nonnull align 1 dereferenceable(1) %6, i64 noundef %7) #14
  ret ptr %8
}

; Function Attrs: mustprogress nounwind uwtable
define linkonce_odr noundef i64 @_ZNK3gmx8ArrayRefIKNS_11BasicVectorIfEEE4sizeEv(ptr noundef nonnull align 8 dereferenceable(16) %0) #0 comdat align 2 {
  %2 = alloca ptr, align 8
  %3 = alloca %"struct.gmx::ArrayRefIter", align 8
  store ptr %0, ptr %2, align 8
  %4 = load ptr, ptr %2, align 8
  %5 = getelementptr inbounds %"class.gmx::ArrayRef", ptr %4, i32 0, i32 1
  %6 = getelementptr inbounds %"class.gmx::ArrayRef", ptr %4, i32 0, i32 0
  call void @llvm.memcpy.p0.p0.i64(ptr align 8 %3, ptr align 8 %6, i64 8, i1 false)
  %7 = getelementptr inbounds %"struct.gmx::ArrayRefIter", ptr %3, i32 0, i32 0
  %8 = load ptr, ptr %7, align 8
  %9 = call noundef i64 @_ZNK3gmx12ArrayRefIterIKNS_11BasicVectorIfEEEmiES4_(ptr noundef nonnull align 8 dereferenceable(8) %5, ptr %8) #14
  ret i64 %9
}

; Function Attrs: mustprogress uwtable
define internal noundef double @_ZN3gmx15analysismodules12_GLOBAL__N_123calcAverageDisplacementILb1ELb1ELb0EEEdNS_8ArrayRefIKNS_11BasicVectorIfEEEES7_(ptr %0, ptr %1, ptr %2, ptr %3) #3 {
  %5 = alloca %"class.gmx::ArrayRef", align 8
  %6 = alloca %"class.gmx::ArrayRef", align 8
  %7 = alloca double, align 8
  %8 = alloca i64, align 8
  %9 = alloca %"class.gmx::BasicVector", align 4
  %10 = alloca %"class.gmx::BasicVector", align 4
  %11 = alloca { <2 x float>, float }, align 4
  %12 = alloca { <2 x float>, float }, align 4
  %13 = getelementptr inbounds { ptr, ptr }, ptr %5, i32 0, i32 0
  store ptr %0, ptr %13, align 8
  %14 = getelementptr inbounds { ptr, ptr }, ptr %5, i32 0, i32 1
  store ptr %1, ptr %14, align 8
  %15 = getelementptr inbounds { ptr, ptr }, ptr %6, i32 0, i32 0
  store ptr %2, ptr %15, align 8
  %16 = getelementptr inbounds { ptr, ptr }, ptr %6, i32 0, i32 1
  store ptr %3, ptr %16, align 8
  store double 0.000000e+00, ptr %7, align 8
  store i64 0, ptr %8, align 8
  br label %17

17:                                               ; preds = %37, %4
  %18 = load i64, ptr %8, align 8
  %19 = call noundef i64 @_ZNK3gmx8ArrayRefIKNS_11BasicVectorIfEEE4sizeEv(ptr noundef nonnull align 8 dereferenceable(16) %5)
  %20 = icmp ult i64 %18, %19
  br i1 %20, label %21, label %40

21:                                               ; preds = %17
  %22 = load i64, ptr %8, align 8
  %23 = call noundef nonnull align 4 dereferenceable(12) ptr @_ZNK3gmx8ArrayRefIKNS_11BasicVectorIfEEEixEm(ptr noundef nonnull align 8 dereferenceable(16) %5, i64 noundef %22)
  call void @llvm.memcpy.p0.p0.i64(ptr align 4 %9, ptr align 4 %23, i64 12, i1 false)
  %24 = load i64, ptr %8, align 8
  %25 = call noundef nonnull align 4 dereferenceable(12) ptr @_ZNK3gmx8ArrayRefIKNS_11BasicVectorIfEEEixEm(ptr noundef nonnull align 8 dereferenceable(16) %6, i64 noundef %24)
  call void @llvm.memcpy.p0.p0.i64(ptr align 4 %10, ptr align 4 %25, i64 12, i1 false)
  call void @llvm.memcpy.p0.p0.i64(ptr align 4 %11, ptr align 4 %9, i64 12, i1 false)
  %26 = getelementptr inbounds { <2 x float>, float }, ptr %11, i32 0, i32 0
  %27 = load <2 x float>, ptr %26, align 4
  %28 = getelementptr inbounds { <2 x float>, float }, ptr %11, i32 0, i32 1
  %29 = load float, ptr %28, align 4
  call void @llvm.memcpy.p0.p0.i64(ptr align 4 %12, ptr align 4 %10, i64 12, i1 false)
  %30 = getelementptr inbounds { <2 x float>, float }, ptr %12, i32 0, i32 0
  %31 = load <2 x float>, ptr %30, align 4
  %32 = getelementptr inbounds { <2 x float>, float }, ptr %12, i32 0, i32 1
  %33 = load float, ptr %32, align 4
  %34 = call noundef double @_ZN3gmx15analysismodules12_GLOBAL__N_125calcSingleSquaredDistanceILb1ELb1ELb0EEEdNS_11BasicVectorIfEES4_(<2 x float> %27, float %29, <2 x float> %31, float %33)
  %35 = load double, ptr %7, align 8
  %36 = fadd double %35, %34
  store double %36, ptr %7, align 8
  br label %37

37:                                               ; preds = %21
  %38 = load i64, ptr %8, align 8
  %39 = add i64 %38, 1
  store i64 %39, ptr %8, align 8
  br label %17, !llvm.loop !24

40:                                               ; preds = %17
  %41 = load double, ptr %7, align 8
  %42 = call noundef i64 @_ZNK3gmx8ArrayRefIKNS_11BasicVectorIfEEE4sizeEv(ptr noundef nonnull align 8 dereferenceable(16) %5)
  %43 = uitofp i64 %42 to double
  %44 = fdiv double %41, %43
  ret double %44
}