; Function Attrs: mustprogress nofree norecurse nosync nounwind willreturn memory(argmem: read) uwtable
define internal noundef double @_ZN3gmx15analysismodules12_GLOBAL__N_123calcAverageDisplacementILb1ELb1ELb0EEEdNS_8ArrayRefIKNS_11BasicVectorIfEEEES7_(ptr %0, ptr %1, ptr nocapture readonly %2, ptr nocapture readnone %3) #4 {
  %5 = ptrtoint ptr %1 to i64
  %6 = ptrtoint ptr %0 to i64
  %7 = sub i64 %5, %6
  %8 = sdiv exact i64 %7, 12
  %.not = icmp eq ptr %1, %0
  br i1 %.not, label %._crit_edge, label %.lr.ph.preheader

.lr.ph.preheader:                                 ; preds = %4
  %umax = tail call i64 @llvm.umax.i64(i64 %8, i64 1)
  br label %.lr.ph

.lr.ph:                                           ; preds = %.lr.ph.preheader, %.lr.ph
  %.016 = phi double [ %19, %.lr.ph ], [ 0.000000e+00, %.lr.ph.preheader ]
  %.01115 = phi i64 [ %20, %.lr.ph ], [ 0, %.lr.ph.preheader ]
  %9 = getelementptr inbounds %"class.gmx::BasicVector", ptr %0, i64 %.01115
  %.sroa.05.0.copyload = load <2 x float>, ptr %9, align 4
  %10 = getelementptr inbounds %"class.gmx::BasicVector", ptr %2, i64 %.01115
  %.sroa.03.0.copyload = load <2 x float>, ptr %10, align 4
  %.sroa.014.0.vec.extract.i = extractelement <2 x float> %.sroa.05.0.copyload, i64 0
  %11 = fpext float %.sroa.014.0.vec.extract.i to double
  %.sroa.014.4.vec.extract.i = extractelement <2 x float> %.sroa.05.0.copyload, i64 1
  %12 = fpext float %.sroa.014.4.vec.extract.i to double
  %.sroa.012.0.vec.extract.i = extractelement <2 x float> %.sroa.03.0.copyload, i64 0
  %13 = fpext float %.sroa.012.0.vec.extract.i to double
  %.sroa.012.4.vec.extract.i = extractelement <2 x float> %.sroa.03.0.copyload, i64 1
  %14 = fpext float %.sroa.012.4.vec.extract.i to double
  %15 = fsub double %11, %13
  %16 = tail call double @llvm.fmuladd.f64(double %15, double %15, double 0.000000e+00)
  %17 = fsub double %12, %14
  %18 = tail call noundef double @llvm.fmuladd.f64(double %17, double %17, double %16)
  %19 = fadd double %.016, %18
  %20 = add nuw i64 %.01115, 1
  %exitcond.not = icmp eq i64 %20, %umax
  br i1 %exitcond.not, label %._crit_edge, label %.lr.ph, !llvm.loop !60

._crit_edge:                                      ; preds = %.lr.ph, %4
  %.0.lcssa = phi double [ 0.000000e+00, %4 ], [ %19, %.lr.ph ]
  %21 = uitofp i64 %8 to double
  %22 = fdiv double %.0.lcssa, %21
  ret double %22
}